((dp0
S'#oshi7'
p1
c__builtin__
set
p2
((lp3
S'c222_'
p4
aS'nightbot'
p5
aS'zondagshow'
p6
aS'decicus'
p7
aS'oshi7'
p8
aS'deceitwithin'
p9
aS'naelphua'
p10
aS'dirtypolo'
p11
atp12
Rp13
sS'#c222_'
p14
g2
((lp15
S'c222_'
p16
aS'c2d2_'
p17
atp18
Rp19
sS'#c2d2_'
p20
g2
((lp21
tp22
Rp23
s(dp24
g4
(dp25
sg5
(dp26
sg6
(dp27
sg7
(dp28
sg8
(dp29
sg9
(dp30
sS'c2d2_'
p31
(dp32
S'EMOTESET'
p33
S'[90]'
p34
sS'SPECIALUSER'
p35
(dp36
S'subscriber'
p37
F1424623443.732
ssS'USERCOLOR'
p38
S'#FF0000'
p39
ssg10
(dp40
sg11
(dp41
stp42
.